CCS PCM C Compiler, Version 5.109, 43599               21-Dec-25 10:18

               Filename:   D:\LTVDK\Baitap\Code\vidieukhienbaocao\hx711.lst

               ROM used:   2159 words (26%)
                           Largest free fragment is 2048
               RAM used:   65 (18%) at main() level
                           87 (24%) worst case
               Stack used: 5 locations
               Stack size: 8

*
0000:  MOVLW  08
0001:  MOVWF  0A
0002:  GOTO   000
0003:  NOP
.................... #include <16f877a.h>
.................... //////////// Standard Header file for the PIC16F877A device ////////////////
.................... ///////////////////////////////////////////////////////////////////////////
.................... ////        (C) Copyright 1996, 2020 Custom Computer Services          ////
.................... //// This source code may only be used by licensed users of the CCS C  ////
.................... //// compiler.  This source code may only be distributed to other      ////
.................... //// licensed users of the CCS C compiler.  No other use, reproduction ////
.................... //// or distribution is permitted without written permission.          ////
.................... //// Derivative programs created using this software in object code    ////
.................... //// form are not restricted in any way.                               ////
.................... ///////////////////////////////////////////////////////////////////////////
.................... #device PIC16F877A
0004:  DATA CC,37
0005:  DATA 61,32
0006:  DATA 69,37
0007:  DATA 67,00
0008:  DATA CC,37
0009:  DATA 61,32
000A:  DATA 69,37
000B:  DATA 67,17
000C:  DATA 00,01
000D:  DATA CC,37
000E:  DATA 61,32
000F:  DATA 69,37
0010:  DATA 67,17
0011:  DATA 2E,00
0012:  DATA CC,37
0013:  DATA 61,32
0014:  DATA 69,37
0015:  DATA 67,17
0016:  DATA 2E,17
0017:  DATA 00,01
0018:  DATA D3,30
0019:  DATA 6E,10
001A:  DATA F3,30
001B:  DATA EE,33
001C:  DATA 21,00
001D:  DATA 20,10
001E:  DATA 20,10
001F:  DATA 20,10
0020:  DATA 20,10
0021:  DATA 20,10
0022:  DATA 20,10
0023:  DATA 20,00
*
00F3:  MOVF   0B,W
00F4:  MOVWF  58
00F5:  BCF    0B.7
00F6:  BSF    03.5
00F7:  BSF    03.6
00F8:  BSF    0C.7
00F9:  BSF    0C.0
00FA:  NOP
00FB:  NOP
00FC:  BCF    03.5
00FD:  BCF    03.6
00FE:  BTFSC  58.7
00FF:  BSF    0B.7
0100:  BSF    03.6
0101:  MOVF   0C,W
0102:  ANDLW  7F
0103:  BTFSC  03.2
0104:  GOTO   147
0105:  BCF    03.6
0106:  MOVWF  58
0107:  BSF    03.6
0108:  MOVF   0D,W
0109:  BCF    03.6
010A:  MOVWF  59
010B:  BSF    03.6
010C:  MOVF   0F,W
010D:  BCF    03.6
010E:  MOVWF  5A
010F:  MOVF   58,W
0110:  MOVWF  65
0111:  CALL   0E3
0112:  MOVF   59,W
0113:  BSF    03.6
0114:  MOVWF  0D
0115:  BCF    03.6
0116:  MOVF   5A,W
0117:  BSF    03.6
0118:  MOVWF  0F
0119:  BCF    03.6
011A:  MOVF   0B,W
011B:  MOVWF  5B
011C:  BCF    0B.7
011D:  BSF    03.5
011E:  BSF    03.6
011F:  BSF    0C.7
0120:  BSF    0C.0
0121:  NOP
0122:  NOP
0123:  BCF    03.5
0124:  BCF    03.6
0125:  BTFSC  5B.7
0126:  BSF    0B.7
0127:  BSF    03.6
0128:  RLF    0C,W
0129:  RLF    0E,W
012A:  ANDLW  7F
012B:  BTFSC  03.2
012C:  GOTO   147
012D:  BCF    03.6
012E:  MOVWF  58
012F:  BSF    03.6
0130:  MOVF   0D,W
0131:  BCF    03.6
0132:  MOVWF  59
0133:  BSF    03.6
0134:  MOVF   0F,W
0135:  BCF    03.6
0136:  MOVWF  5A
0137:  MOVF   58,W
0138:  MOVWF  65
0139:  CALL   0E3
013A:  MOVF   59,W
013B:  BSF    03.6
013C:  MOVWF  0D
013D:  BCF    03.6
013E:  MOVF   5A,W
013F:  BSF    03.6
0140:  MOVWF  0F
0141:  INCF   0D,F
0142:  BTFSC  03.2
0143:  INCF   0F,F
0144:  BCF    03.6
0145:  GOTO   0F3
0146:  BSF    03.6
0147:  BCF    03.6
0148:  RETURN
0149:  BTFSC  03.1
014A:  GOTO   14E
014B:  MOVLW  6D
014C:  MOVWF  04
014D:  BCF    03.7
014E:  CLRF   77
014F:  CLRF   78
0150:  CLRF   79
0151:  CLRF   7A
0152:  CLRF   6D
0153:  CLRF   6E
0154:  CLRF   6F
0155:  CLRF   70
0156:  MOVF   6C,W
0157:  IORWF  6B,W
0158:  IORWF  6A,W
0159:  IORWF  69,W
015A:  BTFSC  03.2
015B:  GOTO   18C
015C:  MOVLW  20
015D:  MOVWF  71
015E:  BCF    03.0
015F:  RLF    65,F
0160:  RLF    66,F
0161:  RLF    67,F
0162:  RLF    68,F
0163:  RLF    6D,F
0164:  RLF    6E,F
0165:  RLF    6F,F
0166:  RLF    70,F
0167:  MOVF   6C,W
0168:  SUBWF  70,W
0169:  BTFSS  03.2
016A:  GOTO   175
016B:  MOVF   6B,W
016C:  SUBWF  6F,W
016D:  BTFSS  03.2
016E:  GOTO   175
016F:  MOVF   6A,W
0170:  SUBWF  6E,W
0171:  BTFSS  03.2
0172:  GOTO   175
0173:  MOVF   69,W
0174:  SUBWF  6D,W
0175:  BTFSS  03.0
0176:  GOTO   186
0177:  MOVF   69,W
0178:  SUBWF  6D,F
0179:  MOVF   6A,W
017A:  BTFSS  03.0
017B:  INCFSZ 6A,W
017C:  SUBWF  6E,F
017D:  MOVF   6B,W
017E:  BTFSS  03.0
017F:  INCFSZ 6B,W
0180:  SUBWF  6F,F
0181:  MOVF   6C,W
0182:  BTFSS  03.0
0183:  INCFSZ 6C,W
0184:  SUBWF  70,F
0185:  BSF    03.0
0186:  RLF    77,F
0187:  RLF    78,F
0188:  RLF    79,F
0189:  RLF    7A,F
018A:  DECFSZ 71,F
018B:  GOTO   15E
018C:  MOVF   6D,W
018D:  MOVWF  00
018E:  INCF   04,F
018F:  MOVF   6E,W
0190:  MOVWF  00
0191:  INCF   04,F
0192:  MOVF   6F,W
0193:  MOVWF  00
0194:  INCF   04,F
0195:  MOVF   70,W
0196:  MOVWF  00
0197:  RETURN
*
0218:  MOVLW  B6
0219:  MOVWF  77
021A:  CLRF   7A
021B:  CLRF   79
021C:  CLRF   78
021D:  BCF    5C.0
021E:  BTFSS  5B.7
021F:  GOTO   22E
0220:  BSF    5C.0
0221:  COMF   58,F
0222:  COMF   59,F
0223:  COMF   5A,F
0224:  COMF   5B,F
0225:  INCF   58,F
0226:  BTFSS  03.2
0227:  GOTO   22E
0228:  INCF   59,F
0229:  BTFSS  03.2
022A:  GOTO   22E
022B:  INCF   5A,F
022C:  BTFSC  03.2
022D:  INCF   5B,F
022E:  MOVF   58,W
022F:  IORWF  59,W
0230:  IORWF  5A,W
0231:  IORWF  5B,W
0232:  BTFSS  03.2
0233:  GOTO   236
0234:  CLRF   77
0235:  GOTO   245
0236:  BCF    03.0
0237:  BTFSC  78.7
0238:  GOTO   242
0239:  RLF    58,F
023A:  RLF    59,F
023B:  RLF    5A,F
023C:  RLF    5B,F
023D:  RLF    7A,F
023E:  RLF    79,F
023F:  RLF    78,F
0240:  DECFSZ 77,F
0241:  GOTO   236
0242:  BCF    78.7
0243:  BTFSC  5C.0
0244:  BSF    78.7
0245:  BSF    0A.3
0246:  BCF    0A.4
0247:  GOTO   1F1 (RETURN)
0248:  MOVF   5C,W
0249:  BTFSC  03.2
024A:  GOTO   30D
024B:  MOVWF  68
024C:  MOVF   60,W
024D:  BTFSC  03.2
024E:  GOTO   30D
024F:  SUBWF  68,F
0250:  BTFSS  03.0
0251:  GOTO   257
0252:  MOVLW  7F
0253:  ADDWF  68,F
0254:  BTFSC  03.0
0255:  GOTO   30D
0256:  GOTO   25D
0257:  MOVLW  81
0258:  SUBWF  68,F
0259:  BTFSS  03.0
025A:  GOTO   30D
025B:  BTFSC  03.2
025C:  GOTO   30D
025D:  MOVF   68,W
025E:  MOVWF  77
025F:  CLRF   78
0260:  CLRF   79
0261:  CLRF   7A
0262:  CLRF   67
0263:  MOVF   5D,W
0264:  MOVWF  66
0265:  BSF    66.7
0266:  MOVF   5E,W
0267:  MOVWF  65
0268:  MOVF   5F,W
0269:  MOVWF  64
026A:  MOVLW  19
026B:  MOVWF  68
026C:  MOVF   63,W
026D:  SUBWF  64,F
026E:  BTFSC  03.0
026F:  GOTO   280
0270:  MOVLW  01
0271:  SUBWF  65,F
0272:  BTFSC  03.0
0273:  GOTO   280
0274:  SUBWF  66,F
0275:  BTFSC  03.0
0276:  GOTO   280
0277:  SUBWF  67,F
0278:  BTFSC  03.0
0279:  GOTO   280
027A:  INCF   67,F
027B:  INCF   66,F
027C:  INCF   65,F
027D:  MOVF   63,W
027E:  ADDWF  64,F
027F:  GOTO   2B2
0280:  MOVF   62,W
0281:  SUBWF  65,F
0282:  BTFSC  03.0
0283:  GOTO   29B
0284:  MOVLW  01
0285:  SUBWF  66,F
0286:  BTFSC  03.0
0287:  GOTO   29B
0288:  SUBWF  67,F
0289:  BTFSC  03.0
028A:  GOTO   29B
028B:  INCF   67,F
028C:  INCF   66,F
028D:  MOVF   62,W
028E:  ADDWF  65,F
028F:  MOVF   63,W
0290:  ADDWF  64,F
0291:  BTFSS  03.0
0292:  GOTO   2B2
0293:  INCF   65,F
0294:  BTFSS  03.2
0295:  GOTO   2B2
0296:  INCF   66,F
0297:  BTFSS  03.2
0298:  GOTO   2B2
0299:  INCF   67,F
029A:  GOTO   2B2
029B:  MOVF   61,W
029C:  IORLW  80
029D:  SUBWF  66,F
029E:  BTFSC  03.0
029F:  GOTO   2B1
02A0:  MOVLW  01
02A1:  SUBWF  67,F
02A2:  BTFSC  03.0
02A3:  GOTO   2B1
02A4:  INCF   67,F
02A5:  MOVF   61,W
02A6:  IORLW  80
02A7:  ADDWF  66,F
02A8:  MOVF   62,W
02A9:  ADDWF  65,F
02AA:  BTFSS  03.0
02AB:  GOTO   28F
02AC:  INCF   66,F
02AD:  BTFSS  03.2
02AE:  GOTO   28F
02AF:  INCF   67,F
02B0:  GOTO   28F
02B1:  BSF    7A.0
02B2:  DECFSZ 68,F
02B3:  GOTO   2B5
02B4:  GOTO   2C0
02B5:  BCF    03.0
02B6:  RLF    64,F
02B7:  RLF    65,F
02B8:  RLF    66,F
02B9:  RLF    67,F
02BA:  BCF    03.0
02BB:  RLF    7A,F
02BC:  RLF    79,F
02BD:  RLF    78,F
02BE:  RLF    69,F
02BF:  GOTO   26C
02C0:  BTFSS  69.0
02C1:  GOTO   2C8
02C2:  BCF    03.0
02C3:  RRF    78,F
02C4:  RRF    79,F
02C5:  RRF    7A,F
02C6:  RRF    69,F
02C7:  GOTO   2CB
02C8:  DECF   77,F
02C9:  BTFSC  03.2
02CA:  GOTO   30D
02CB:  BTFSC  69.7
02CC:  GOTO   2F4
02CD:  BCF    03.0
02CE:  RLF    64,F
02CF:  RLF    65,F
02D0:  RLF    66,F
02D1:  RLF    67,F
02D2:  MOVF   63,W
02D3:  SUBWF  64,F
02D4:  BTFSC  03.0
02D5:  GOTO   2E0
02D6:  MOVLW  01
02D7:  SUBWF  65,F
02D8:  BTFSC  03.0
02D9:  GOTO   2E0
02DA:  SUBWF  66,F
02DB:  BTFSC  03.0
02DC:  GOTO   2E0
02DD:  SUBWF  67,F
02DE:  BTFSS  03.0
02DF:  GOTO   303
02E0:  MOVF   62,W
02E1:  SUBWF  65,F
02E2:  BTFSC  03.0
02E3:  GOTO   2EB
02E4:  MOVLW  01
02E5:  SUBWF  66,F
02E6:  BTFSC  03.0
02E7:  GOTO   2EB
02E8:  SUBWF  67,F
02E9:  BTFSS  03.0
02EA:  GOTO   303
02EB:  MOVF   61,W
02EC:  IORLW  80
02ED:  SUBWF  66,F
02EE:  BTFSC  03.0
02EF:  GOTO   2F4
02F0:  MOVLW  01
02F1:  SUBWF  67,F
02F2:  BTFSS  03.0
02F3:  GOTO   303
02F4:  INCF   7A,F
02F5:  BTFSS  03.2
02F6:  GOTO   303
02F7:  INCF   79,F
02F8:  BTFSS  03.2
02F9:  GOTO   303
02FA:  INCF   78,F
02FB:  BTFSS  03.2
02FC:  GOTO   303
02FD:  INCF   77,F
02FE:  BTFSC  03.2
02FF:  GOTO   30D
0300:  RRF    78,F
0301:  RRF    79,F
0302:  RRF    7A,F
0303:  MOVF   5D,W
0304:  MOVWF  68
0305:  MOVF   61,W
0306:  XORWF  68,F
0307:  BTFSS  68.7
0308:  GOTO   30B
0309:  BSF    78.7
030A:  GOTO   311
030B:  BCF    78.7
030C:  GOTO   311
030D:  CLRF   77
030E:  CLRF   78
030F:  CLRF   79
0310:  CLRF   7A
0311:  BSF    0A.3
0312:  BCF    0A.4
0313:  GOTO   20C (RETURN)
0314:  MOVLW  80
0315:  BTFSC  03.1
0316:  XORWF  5D,F
0317:  CLRF   62
0318:  CLRF   63
0319:  MOVF   59,W
031A:  MOVWF  61
031B:  MOVF   5D,W
031C:  XORWF  61,F
031D:  MOVF   58,W
031E:  BTFSC  03.2
031F:  GOTO   404
0320:  MOVWF  60
0321:  MOVWF  77
0322:  MOVF   5C,W
0323:  BTFSC  03.2
0324:  GOTO   40D
0325:  SUBWF  60,F
0326:  BTFSC  03.2
0327:  GOTO   3A9
0328:  BTFSS  03.0
0329:  GOTO   367
032A:  MOVF   5D,W
032B:  MOVWF  66
032C:  BSF    66.7
032D:  MOVF   5E,W
032E:  MOVWF  65
032F:  MOVF   5F,W
0330:  MOVWF  64
0331:  CLRF   63
0332:  BCF    03.0
0333:  RRF    66,F
0334:  RRF    65,F
0335:  RRF    64,F
0336:  RRF    63,F
0337:  DECFSZ 60,F
0338:  GOTO   331
0339:  BTFSS  61.7
033A:  GOTO   33E
033B:  BSF    62.0
033C:  GOTO   421
033D:  BCF    62.0
033E:  BCF    60.0
033F:  BSF    62.4
0340:  MOVLW  5B
0341:  MOVWF  04
0342:  BCF    03.7
0343:  GOTO   436
0344:  BCF    62.4
0345:  BTFSC  61.7
0346:  GOTO   351
0347:  BTFSS  60.0
0348:  GOTO   35C
0349:  RRF    66,F
034A:  RRF    65,F
034B:  RRF    64,F
034C:  RRF    63,F
034D:  INCF   77,F
034E:  BTFSC  03.2
034F:  GOTO   41C
0350:  GOTO   35C
0351:  BTFSC  66.7
0352:  GOTO   35F
0353:  BCF    03.0
0354:  RLF    63,F
0355:  RLF    64,F
0356:  RLF    65,F
0357:  RLF    66,F
0358:  DECF   77,F
0359:  BTFSC  03.2
035A:  GOTO   41C
035B:  GOTO   351
035C:  BSF    62.6
035D:  GOTO   3C9
035E:  BCF    62.6
035F:  MOVF   59,W
0360:  MOVWF  61
0361:  BTFSS  61.7
0362:  GOTO   365
0363:  BSF    66.7
0364:  GOTO   415
0365:  BCF    66.7
0366:  GOTO   415
0367:  MOVF   5C,W
0368:  MOVWF  60
0369:  MOVWF  77
036A:  MOVF   58,W
036B:  SUBWF  60,F
036C:  MOVF   59,W
036D:  MOVWF  66
036E:  BSF    66.7
036F:  MOVF   5A,W
0370:  MOVWF  65
0371:  MOVF   5B,W
0372:  MOVWF  64
0373:  CLRF   63
0374:  BCF    03.0
0375:  RRF    66,F
0376:  RRF    65,F
0377:  RRF    64,F
0378:  RRF    63,F
0379:  DECFSZ 60,F
037A:  GOTO   373
037B:  BTFSS  61.7
037C:  GOTO   380
037D:  BSF    62.1
037E:  GOTO   421
037F:  BCF    62.1
0380:  BCF    60.0
0381:  BSF    62.5
0382:  MOVLW  5F
0383:  MOVWF  04
0384:  BCF    03.7
0385:  GOTO   436
0386:  BCF    62.5
0387:  BTFSC  61.7
0388:  GOTO   393
0389:  BTFSS  60.0
038A:  GOTO   39E
038B:  RRF    66,F
038C:  RRF    65,F
038D:  RRF    64,F
038E:  RRF    63,F
038F:  INCF   77,F
0390:  BTFSC  03.2
0391:  GOTO   41C
0392:  GOTO   39E
0393:  BTFSC  66.7
0394:  GOTO   3A1
0395:  BCF    03.0
0396:  RLF    63,F
0397:  RLF    64,F
0398:  RLF    65,F
0399:  RLF    66,F
039A:  DECF   77,F
039B:  BTFSC  03.2
039C:  GOTO   41C
039D:  GOTO   393
039E:  BSF    62.7
039F:  GOTO   3C9
03A0:  BCF    62.7
03A1:  MOVF   5D,W
03A2:  MOVWF  61
03A3:  BTFSS  61.7
03A4:  GOTO   3A7
03A5:  BSF    66.7
03A6:  GOTO   415
03A7:  BCF    66.7
03A8:  GOTO   415
03A9:  MOVF   5D,W
03AA:  MOVWF  66
03AB:  BSF    66.7
03AC:  MOVF   5E,W
03AD:  MOVWF  65
03AE:  MOVF   5F,W
03AF:  MOVWF  64
03B0:  BTFSS  61.7
03B1:  GOTO   3B6
03B2:  BCF    66.7
03B3:  BSF    62.2
03B4:  GOTO   421
03B5:  BCF    62.2
03B6:  CLRF   63
03B7:  BCF    60.0
03B8:  MOVLW  5B
03B9:  MOVWF  04
03BA:  BCF    03.7
03BB:  GOTO   436
03BC:  BTFSC  61.7
03BD:  GOTO   3DF
03BE:  MOVF   59,W
03BF:  MOVWF  61
03C0:  BTFSS  60.0
03C1:  GOTO   3C9
03C2:  RRF    66,F
03C3:  RRF    65,F
03C4:  RRF    64,F
03C5:  RRF    63,F
03C6:  INCF   77,F
03C7:  BTFSC  03.2
03C8:  GOTO   41C
03C9:  BTFSS  63.7
03CA:  GOTO   3DA
03CB:  INCF   64,F
03CC:  BTFSS  03.2
03CD:  GOTO   3DA
03CE:  INCF   65,F
03CF:  BTFSS  03.2
03D0:  GOTO   3DA
03D1:  INCF   66,F
03D2:  BTFSS  03.2
03D3:  GOTO   3DA
03D4:  RRF    66,F
03D5:  RRF    65,F
03D6:  RRF    64,F
03D7:  INCF   77,F
03D8:  BTFSC  03.2
03D9:  GOTO   41C
03DA:  BTFSC  62.6
03DB:  GOTO   35E
03DC:  BTFSC  62.7
03DD:  GOTO   3A0
03DE:  GOTO   3FE
03DF:  MOVLW  80
03E0:  XORWF  66,F
03E1:  BTFSS  66.7
03E2:  GOTO   3E7
03E3:  GOTO   421
03E4:  MOVF   5D,W
03E5:  MOVWF  61
03E6:  GOTO   3F4
03E7:  MOVF   59,W
03E8:  MOVWF  61
03E9:  MOVF   66,F
03EA:  BTFSS  03.2
03EB:  GOTO   3F4
03EC:  MOVF   65,F
03ED:  BTFSS  03.2
03EE:  GOTO   3F4
03EF:  MOVF   64,F
03F0:  BTFSS  03.2
03F1:  GOTO   3F4
03F2:  CLRF   77
03F3:  GOTO   415
03F4:  BTFSC  66.7
03F5:  GOTO   3FE
03F6:  BCF    03.0
03F7:  RLF    63,F
03F8:  RLF    64,F
03F9:  RLF    65,F
03FA:  RLF    66,F
03FB:  DECFSZ 77,F
03FC:  GOTO   3F4
03FD:  GOTO   41C
03FE:  BTFSS  61.7
03FF:  GOTO   402
0400:  BSF    66.7
0401:  GOTO   415
0402:  BCF    66.7
0403:  GOTO   415
0404:  MOVF   5C,W
0405:  MOVWF  77
0406:  MOVF   5D,W
0407:  MOVWF  66
0408:  MOVF   5E,W
0409:  MOVWF  65
040A:  MOVF   5F,W
040B:  MOVWF  64
040C:  GOTO   415
040D:  MOVF   58,W
040E:  MOVWF  77
040F:  MOVF   59,W
0410:  MOVWF  66
0411:  MOVF   5A,W
0412:  MOVWF  65
0413:  MOVF   5B,W
0414:  MOVWF  64
0415:  MOVF   66,W
0416:  MOVWF  78
0417:  MOVF   65,W
0418:  MOVWF  79
0419:  MOVF   64,W
041A:  MOVWF  7A
041B:  GOTO   454
041C:  CLRF   77
041D:  CLRF   78
041E:  CLRF   79
041F:  CLRF   7A
0420:  GOTO   454
0421:  CLRF   63
0422:  COMF   64,F
0423:  COMF   65,F
0424:  COMF   66,F
0425:  COMF   63,F
0426:  INCF   63,F
0427:  BTFSS  03.2
0428:  GOTO   42F
0429:  INCF   64,F
042A:  BTFSS  03.2
042B:  GOTO   42F
042C:  INCF   65,F
042D:  BTFSC  03.2
042E:  INCF   66,F
042F:  BTFSC  62.0
0430:  GOTO   33D
0431:  BTFSC  62.1
0432:  GOTO   37F
0433:  BTFSC  62.2
0434:  GOTO   3B5
0435:  GOTO   3E4
0436:  MOVF   00,W
0437:  ADDWF  64,F
0438:  BTFSS  03.0
0439:  GOTO   440
043A:  INCF   65,F
043B:  BTFSS  03.2
043C:  GOTO   440
043D:  INCF   66,F
043E:  BTFSC  03.2
043F:  BSF    60.0
0440:  DECF   04,F
0441:  MOVF   00,W
0442:  ADDWF  65,F
0443:  BTFSS  03.0
0444:  GOTO   448
0445:  INCF   66,F
0446:  BTFSC  03.2
0447:  BSF    60.0
0448:  DECF   04,F
0449:  MOVF   00,W
044A:  BTFSS  00.7
044B:  XORLW  80
044C:  ADDWF  66,F
044D:  BTFSC  03.0
044E:  BSF    60.0
044F:  BTFSC  62.4
0450:  GOTO   344
0451:  BTFSC  62.5
0452:  GOTO   386
0453:  GOTO   3BC
0454:  BSF    0A.3
0455:  BCF    0A.4
0456:  GOTO   228 (RETURN)
0457:  MOVF   5D,W
0458:  MOVWF  64
0459:  MOVF   61,W
045A:  XORWF  64,F
045B:  BTFSS  64.7
045C:  GOTO   462
045D:  BCF    03.2
045E:  BCF    03.0
045F:  BTFSC  5D.7
0460:  BSF    03.0
0461:  GOTO   495
0462:  MOVF   5D,W
0463:  MOVWF  64
0464:  MOVF   60,W
0465:  MOVWF  65
0466:  MOVF   5C,W
0467:  SUBWF  65,F
0468:  BTFSC  03.2
0469:  GOTO   470
046A:  BTFSS  64.7
046B:  GOTO   495
046C:  MOVF   03,W
046D:  XORLW  01
046E:  MOVWF  03
046F:  GOTO   495
0470:  MOVF   61,W
0471:  MOVWF  65
0472:  MOVF   5D,W
0473:  SUBWF  65,F
0474:  BTFSC  03.2
0475:  GOTO   47C
0476:  BTFSS  64.7
0477:  GOTO   495
0478:  MOVF   03,W
0479:  XORLW  01
047A:  MOVWF  03
047B:  GOTO   495
047C:  MOVF   62,W
047D:  MOVWF  65
047E:  MOVF   5E,W
047F:  SUBWF  65,F
0480:  BTFSC  03.2
0481:  GOTO   488
0482:  BTFSS  64.7
0483:  GOTO   495
0484:  MOVF   03,W
0485:  XORLW  01
0486:  MOVWF  03
0487:  GOTO   495
0488:  MOVF   63,W
0489:  MOVWF  65
048A:  MOVF   5F,W
048B:  SUBWF  65,F
048C:  BTFSC  03.2
048D:  GOTO   494
048E:  BTFSS  64.7
048F:  GOTO   495
0490:  MOVF   03,W
0491:  XORLW  01
0492:  MOVWF  03
0493:  GOTO   495
0494:  BCF    03.0
0495:  BSF    0A.3
0496:  BCF    0A.4
0497:  GOTO   250 (RETURN)
0498:  MOVF   04,W
0499:  MOVWF  5D
049A:  MOVF   5C,W
049B:  MOVWF  5F
049C:  BTFSC  03.2
049D:  GOTO   52A
049E:  MOVF   5B,W
049F:  MOVWF  68
04A0:  MOVF   5A,W
04A1:  MOVWF  67
04A2:  MOVF   59,W
04A3:  MOVWF  66
04A4:  MOVF   58,W
04A5:  MOVWF  65
04A6:  CLRF   6C
04A7:  CLRF   6B
04A8:  MOVLW  20
04A9:  MOVWF  6A
04AA:  MOVLW  82
04AB:  MOVWF  69
04AC:  MOVF   65,W
04AD:  BTFSC  03.2
04AE:  GOTO   51C
04AF:  MOVWF  6D
04B0:  MOVF   69,W
04B1:  BTFSC  03.2
04B2:  GOTO   51C
04B3:  ADDWF  6D,F
04B4:  BTFSC  03.0
04B5:  GOTO   4BD
04B6:  MOVLW  7F
04B7:  SUBWF  6D,F
04B8:  BTFSS  03.0
04B9:  GOTO   51C
04BA:  BTFSC  03.2
04BB:  GOTO   51C
04BC:  GOTO   4C1
04BD:  MOVLW  81
04BE:  ADDWF  6D,F
04BF:  BTFSC  03.0
04C0:  GOTO   51C
04C1:  MOVF   6D,W
04C2:  MOVWF  77
04C3:  CLRF   78
04C4:  CLRF   79
04C5:  CLRF   7A
04C6:  MOVF   66,W
04C7:  MOVWF  71
04C8:  BSF    71.7
04C9:  MOVF   67,W
04CA:  MOVWF  70
04CB:  MOVF   68,W
04CC:  MOVWF  6F
04CD:  MOVLW  18
04CE:  MOVWF  6D
04CF:  CLRF   6E
04D0:  BTFSS  6F.0
04D1:  GOTO   4EA
04D2:  MOVF   6C,W
04D3:  ADDWF  7A,F
04D4:  BTFSS  03.0
04D5:  GOTO   4DC
04D6:  INCF   79,F
04D7:  BTFSS  03.2
04D8:  GOTO   4DC
04D9:  INCF   78,F
04DA:  BTFSC  03.2
04DB:  BSF    6E.7
04DC:  MOVF   6B,W
04DD:  ADDWF  79,F
04DE:  BTFSS  03.0
04DF:  GOTO   4E3
04E0:  INCF   78,F
04E1:  BTFSC  03.2
04E2:  BSF    6E.7
04E3:  MOVF   6A,W
04E4:  MOVWF  67
04E5:  BSF    67.7
04E6:  MOVF   67,W
04E7:  ADDWF  78,F
04E8:  BTFSC  03.0
04E9:  BSF    6E.7
04EA:  RLF    6E,F
04EB:  RRF    78,F
04EC:  RRF    79,F
04ED:  RRF    7A,F
04EE:  RRF    71,F
04EF:  RRF    70,F
04F0:  RRF    6F,F
04F1:  BCF    03.0
04F2:  DECFSZ 6D,F
04F3:  GOTO   4CF
04F4:  MOVLW  01
04F5:  ADDWF  77,F
04F6:  BTFSC  03.0
04F7:  GOTO   51C
04F8:  BTFSC  78.7
04F9:  GOTO   501
04FA:  RLF    71,F
04FB:  RLF    7A,F
04FC:  RLF    79,F
04FD:  RLF    78,F
04FE:  DECF   77,F
04FF:  BTFSC  03.2
0500:  GOTO   51C
0501:  BTFSS  71.7
0502:  GOTO   512
0503:  INCF   7A,F
0504:  BTFSS  03.2
0505:  GOTO   512
0506:  INCF   79,F
0507:  BTFSS  03.2
0508:  GOTO   512
0509:  INCF   78,F
050A:  BTFSS  03.2
050B:  GOTO   512
050C:  RRF    78,F
050D:  RRF    79,F
050E:  RRF    7A,F
050F:  INCF   77,F
0510:  BTFSC  03.2
0511:  GOTO   51C
0512:  MOVF   66,W
0513:  MOVWF  6E
0514:  MOVF   6A,W
0515:  XORWF  6E,F
0516:  BTFSS  6E.7
0517:  GOTO   51A
0518:  BSF    78.7
0519:  GOTO   520
051A:  BCF    78.7
051B:  GOTO   520
051C:  CLRF   77
051D:  CLRF   78
051E:  CLRF   79
051F:  CLRF   7A
0520:  MOVF   7A,W
0521:  MOVWF  5B
0522:  MOVF   79,W
0523:  MOVWF  5A
0524:  MOVF   78,W
0525:  MOVWF  59
0526:  MOVF   77,W
0527:  MOVWF  58
0528:  DECFSZ 5F,F
0529:  GOTO   49E
052A:  MOVF   5B,W
052B:  MOVWF  68
052C:  MOVF   5A,W
052D:  MOVWF  67
052E:  MOVF   59,W
052F:  MOVWF  66
0530:  MOVF   58,W
0531:  MOVWF  65
0532:  MOVF   65,W
0533:  SUBLW  B6
0534:  MOVWF  65
0535:  CLRF   7A
0536:  MOVF   66,W
0537:  MOVWF  69
0538:  BSF    66.7
0539:  BCF    03.0
053A:  RRF    66,F
053B:  RRF    67,F
053C:  RRF    68,F
053D:  RRF    7A,F
053E:  RRF    79,F
053F:  RRF    78,F
0540:  RRF    77,F
0541:  DECFSZ 65,F
0542:  GOTO   539
0543:  BTFSS  69.7
0544:  GOTO   550
0545:  COMF   77,F
0546:  COMF   78,F
0547:  COMF   79,F
0548:  COMF   7A,F
0549:  INCF   77,F
054A:  BTFSC  03.2
054B:  INCF   78,F
054C:  BTFSC  03.2
054D:  INCF   79,F
054E:  BTFSC  03.2
054F:  INCF   7A,F
0550:  MOVF   7A,W
0551:  MOVWF  5B
0552:  MOVF   79,W
0553:  MOVWF  5A
0554:  MOVF   78,W
0555:  MOVWF  59
0556:  MOVF   77,W
0557:  MOVWF  58
0558:  BTFSS  5B.7
0559:  GOTO   567
055A:  DECF   5D,F
055B:  BSF    5D.5
055C:  COMF   58,F
055D:  COMF   59,F
055E:  COMF   5A,F
055F:  COMF   5B,F
0560:  INCF   58,F
0561:  BTFSC  03.2
0562:  INCF   59,F
0563:  BTFSC  03.2
0564:  INCF   5A,F
0565:  BTFSC  03.2
0566:  INCF   5B,F
0567:  MOVLW  3B
0568:  MOVWF  64
0569:  MOVLW  9A
056A:  MOVWF  63
056B:  MOVLW  CA
056C:  MOVWF  62
056D:  CLRF   61
056E:  MOVLW  0A
056F:  MOVWF  5F
0570:  MOVF   5C,W
0571:  BTFSC  03.2
0572:  INCF   5D,F
0573:  BSF    03.1
0574:  MOVLW  58
0575:  MOVWF  04
0576:  BCF    03.7
0577:  MOVF   5B,W
0578:  MOVWF  68
0579:  MOVF   5A,W
057A:  MOVWF  67
057B:  MOVF   59,W
057C:  MOVWF  66
057D:  MOVF   58,W
057E:  MOVWF  65
057F:  MOVF   64,W
0580:  MOVWF  6C
0581:  MOVF   63,W
0582:  MOVWF  6B
0583:  MOVF   62,W
0584:  MOVWF  6A
0585:  MOVF   61,W
0586:  MOVWF  69
0587:  CALL   149
0588:  MOVF   78,W
0589:  MOVF   77,F
058A:  BTFSS  03.2
058B:  GOTO   59F
058C:  INCF   5C,W
058D:  SUBWF  5F,W
058E:  BTFSC  03.2
058F:  GOTO   59F
0590:  MOVF   5D,W
0591:  BTFSC  03.2
0592:  GOTO   5A1
0593:  ANDLW  0F
0594:  SUBWF  5F,W
0595:  BTFSC  03.2
0596:  GOTO   599
0597:  BTFSC  03.0
0598:  GOTO   5D1
0599:  BTFSC  5D.7
059A:  GOTO   5D1
059B:  BTFSC  5D.6
059C:  GOTO   5A1
059D:  MOVLW  20
059E:  GOTO   5CD
059F:  MOVLW  20
05A0:  ANDWF  5D,F
05A1:  BTFSS  5D.5
05A2:  GOTO   5AF
05A3:  BCF    5D.5
05A4:  MOVF   5C,W
05A5:  BTFSS  03.2
05A6:  DECF   5D,F
05A7:  MOVF   77,W
05A8:  MOVWF  5D
05A9:  MOVLW  2D
05AA:  MOVWF  65
05AB:  CALL   0E3
05AC:  MOVF   5D,W
05AD:  MOVWF  77
05AE:  CLRF   5D
05AF:  MOVF   5C,W
05B0:  SUBWF  5F,W
05B1:  BTFSS  03.2
05B2:  GOTO   5BD
05B3:  MOVF   77,W
05B4:  MOVWF  5D
05B5:  MOVLW  2E
05B6:  MOVWF  65
05B7:  CALL   0E3
05B8:  MOVF   5D,W
05B9:  MOVWF  77
05BA:  MOVLW  20
05BB:  ANDWF  5D,F
05BC:  MOVLW  00
05BD:  MOVLW  30
05BE:  BTFSS  5D.5
05BF:  GOTO   5CD
05C0:  BCF    5D.5
05C1:  MOVF   5C,W
05C2:  BTFSS  03.2
05C3:  DECF   5D,F
05C4:  MOVF   77,W
05C5:  MOVWF  5D
05C6:  MOVLW  2D
05C7:  MOVWF  65
05C8:  CALL   0E3
05C9:  MOVF   5D,W
05CA:  MOVWF  77
05CB:  CLRF   5D
05CC:  MOVLW  30
05CD:  ADDWF  77,F
05CE:  MOVF   77,W
05CF:  MOVWF  65
05D0:  CALL   0E3
05D1:  BCF    03.1
05D2:  MOVF   64,W
05D3:  MOVWF  68
05D4:  MOVF   63,W
05D5:  MOVWF  67
05D6:  MOVF   62,W
05D7:  MOVWF  66
05D8:  MOVF   61,W
05D9:  MOVWF  65
05DA:  CLRF   6C
05DB:  CLRF   6B
05DC:  CLRF   6A
05DD:  MOVLW  0A
05DE:  MOVWF  69
05DF:  CALL   149
05E0:  MOVF   7A,W
05E1:  MOVWF  64
05E2:  MOVF   79,W
05E3:  MOVWF  63
05E4:  MOVF   78,W
05E5:  MOVWF  62
05E6:  MOVF   77,W
05E7:  MOVWF  61
05E8:  DECFSZ 5F,F
05E9:  GOTO   573
05EA:  BSF    0A.3
05EB:  BCF    0A.4
05EC:  GOTO   268 (RETURN)
.................... 
.................... #list
.................... 
.................... #include <def_877a.h>
.................... #define W 0
.................... #define F 1
.................... 
.................... //----- Register Files------------------------------------------------------
.................... 
.................... #byte INDF =0x00
.................... #byte TMR0 =0x01 
.................... #byte PCL =0x02 
.................... #byte STATUS =0x03 
.................... #byte FSR =0x04 
.................... #byte PORTA =0x05 
.................... #byte PORTB =0x06 
.................... #byte PORTC =0x07
.................... 
.................... #byte PCLATH =0x0A 
.................... #byte PIR1 =0x0C
.................... #byte PIR2 =0x0D
.................... 
.................... #byte TMR1L =0x0E
.................... #byte TMR1H =0x0F
.................... #byte T1CON =0x10
.................... #byte TMR2 =0x11
.................... #byte T2CON =0x12
.................... 
.................... #byte SSPCON =0x14
.................... #byte CCPR1L =0x15
.................... #byte CCPR1H =0x16
.................... #byte CCP1CON =0x17
.................... #byte RCSTA =0x18
.................... #byte TXREG =0x19
.................... #byte RCREG =0x1A
.................... #byte CCPR2L =0x1B
.................... #byte CCPR2H =0x1C
.................... #byte CCP2CON =0x1D 
.................... 
.................... #byte ADRESH =0x1E
.................... #byte ADCON0 =0x1F
.................... 
.................... /* bank 1 registers */
.................... 
.................... #byte OPTION_REG =0x81
.................... 
.................... #byte TRISA =0x85
.................... #byte TRISB =0x86
.................... #byte TRISC =0x87
.................... 
.................... #byte PIE1 =0x8C
.................... #byte PIE2 =0x8D
.................... #byte PCON =0x8E
.................... 
.................... #byte SSPCON2 =0x91
.................... #byte PR2 =0x92
.................... #byte SSPADD =0x93
.................... #byte SSPSTAT =0x94
.................... 
.................... #byte TXSTA =0x98
.................... #byte SPBRG =0x99
.................... 
.................... #byte ADRESL =0x9E
.................... #byte ADCON1 =0x9F
.................... 
.................... /* bank 2 registers */
.................... 
.................... #byte EEDATA =0x010C
.................... #byte EEADR =0x010D
.................... #byte EEDATH =0x010E
.................... #byte EEADRH =0x010F
.................... 
.................... /* bank 3 registers */
.................... 
.................... #byte EECON1 =0x018C
.................... #byte EECON2 =0x018D
.................... 
.................... 
.................... //----- STATUS Bits --------------------------------------------------------
.................... 
.................... // For Assembly Language - Note upper case
.................... #define IRP 7
.................... #define RP1 6
.................... #define RP0 5
.................... #define NOT_TO 4
.................... #define NOT_PD 3
.................... #define Z 2
.................... #define DC 1
.................... #define C 0
.................... 
.................... //----- INTCON Bits for c --------------------------------------------------------
.................... 
.................... #bit gie = 0x0b.7
.................... #bit eeie = 0x0b.6
.................... #bit t0ie = 0x0b.5
.................... #bit inte = 0x0b.4
.................... #bit rbie = 0x0b.3
.................... #bit t0if = 0x0b.2
.................... #bit intf = 0x0b.1
.................... #bit rbif = 0x0b.0
.................... 
.................... //---------PORTA bits------------------
.................... #bit ra5 =0x05.5
.................... #bit ra4 =0x05.4
.................... #bit ra3 =0x05.3
.................... #bit ra2 =0x05.2
.................... #bit ra1 =0x05.1
.................... #bit ra0 =0x05.0
.................... 
.................... //---------PORTB bits------------------
.................... #bit rb7 =0x06.7
.................... #bit rb6 =0x06.6
.................... #bit rb5 =0x06.5
.................... #bit rb4 =0x06.4
.................... #bit rb3 =0x06.3
.................... #bit rb2 =0x06.2
.................... #bit rb1 =0x06.1
.................... #bit rb0 =0x06.0
.................... 
.................... //---------PORTC bits------------------
.................... #bit rc7 =0x07.7
.................... #bit rc6 =0x07.6
.................... #bit rc5 =0x07.5
.................... #bit rc4 =0x07.4
.................... #bit rc3 =0x07.3
.................... #bit rc2 =0x07.2
.................... #bit rc1 =0x07.1
.................... #bit rc0 =0x07.0
.................... 
.................... //----- PIR1 Bits ----------------------------------------------------------
.................... #bit PSPIF =0x0C.7
.................... #bit ADIF =0x0C.6
.................... #bit RCIF =0x0C.5
.................... #bit TXIF =0x0C.4
.................... #bit SSPIF =0x0C.3
.................... #bit CCP1IF =0x0C.2
.................... #bit TMR2IF =0x0C.1
.................... #bit TMR1IF =0x0C.0
.................... 
.................... //----- PIR2 Bits ----------------------------------------------------------
.................... #bit CMIF =0x0D.6
.................... #bit EEIF =0x0D.4
.................... #bit BCLIF =0x0D.3
.................... #bit CCP2IF =0x0D.0
.................... 
.................... //----- T1CON Bits ---------------------------------------------------------
.................... #bit T1CKPS1 =0x10.5
.................... #bit T1CKPS0 =0x10.4
.................... #bit T1OSCEN =0x10.3
.................... #bit T1SYNC =0x10.2
.................... #bit TMR1CS =0x10.1
.................... #bit TMR1ON =0x10.0
.................... 
.................... //----- T2CON Bits ---------------------------------------------------------
.................... #bit TOUTPS3 =0x12.6
.................... #bit TOUTPS2 =0x12.5
.................... #bit TOUTPS1 =0x12.4
.................... #bit TOUTPS0 =0x12.3
.................... #bit TMR2ON =0x12.2
.................... #bit T2CKPS1 =0x12.1
.................... #bit T2CKPS0 =0x12.0
.................... 
.................... //-------------SSPCON bits--------------------------
.................... #bit WCOL =0x14.7
.................... #bit SSPOV =0x14.6
.................... #bit SSPEN =0x14.5 
.................... #bit CKP =0x14.4
.................... #bit SSPM3 =0x14.3
.................... #bit SSPM2 =0x14.2
.................... #bit SSPM1 =0x14.1
.................... #bit SSPM0 =0x14.0
.................... 
.................... //---------------CCP1CON bits--------
.................... #bit CCP1X =0x17.5
.................... #bit CCP1Y =0x17.4
.................... #bit CCP1M3 =0x17.3
.................... #bit CCP1M2 =0x17.2
.................... #bit CCP1M1 =0x17.1
.................... #bit CCP1M0 =0x17.0
.................... 
.................... //---------------RCSTA bits-------------------
.................... 
.................... #bit SPEN =0x18.7
.................... #bit RX9 =0x18.6
.................... #bit SREN =0x18.5
.................... #bit CREN =0x18.4
.................... #bit ADDEN =0x18.3
.................... #bit FERR =0x18.2
.................... #bit OERR =0x18.1
.................... #bit RX9D =0x18.0
.................... 
.................... //-----------------------CCP2CON bits----------
.................... 
.................... #bit CCP2X =0x1D.5
.................... #bit CCP2Y =0x1D.4
.................... #bit CCP2M3 =0x1D.3
.................... #bit CCP2M2 =0x1D.2
.................... #bit CCP2M1 =0x1D.1
.................... #bit CCP2M0 =0x1D.0
.................... 
.................... //----- ADCON0 Bits --------------------------------------------------------
.................... #bit ADCS1 =0x1F.7
.................... #bit ADCS0 =0x1F.6
.................... #bit CHS2 =0x1F.5 
.................... #bit CHS1 =0x1F.4
.................... #bit CHS0 =0x1F.3
.................... #bit ADGO =0x1F.2
.................... #bit ADON =0x1F.0
.................... 
.................... //----- OPTION_reg Bits --------------------------------------------------------
.................... 
.................... #bit RBPU =0x81.7 
.................... #bit INTEDG =0x81.6 
.................... #bit T0CS =0x81.5 
.................... #bit T0SE =0x81.4 
.................... #bit PSA =0x81.3 
.................... #bit PS2 =0x81.2 
.................... #bit PS1 =0x81.1 
.................... #bit PS0 =0x81.0 
.................... 
.................... //------------------TRISA bits---------------------------
.................... 
.................... #bit TRISA5 =0x85.5
.................... #bit TRISA4 =0x85.4
.................... #bit TRISA3 =0x85.3
.................... #bit TRISA2 =0x85.2
.................... #bit TRISA1 =0x85.1 
.................... #bit TRISA0 =0x85.0
.................... 
.................... //-----------------TRISB bits-----------------------------
.................... 
.................... #bit TRISB7 =0x86.7
.................... #bit TRISB6 =0x86.6 
.................... #bit TRISB5 =0x86.5
.................... #bit TRISB4 =0x86.4 
.................... #bit TRISB3 =0x86.3
.................... #bit TRISB2 =0x86.2
.................... #bit TRISB1 =0x86.1 
.................... #bit TRISB0 =0x86.0 
.................... 
.................... //----------------TRISC bits-------------------
.................... 
.................... #bit TRISC7 =0x87.7
.................... #bit TRISC6 =0x87.6
.................... #bit TRISC5 =0x87.5 
.................... #bit TRISC4 =0x87.4
.................... #bit TRISC3 =0x87.3
.................... #bit TRISC2 =0x87.2 
.................... #bit TRISC1 =0x87.1
.................... #bit TRISC0 =0x87.0
.................... 
.................... //----- PIE1 Bits ----------------------------------------------------------
.................... 
.................... #bit PSPIE =0x8C.7
.................... #bit ADIE =0x8C.6
.................... #bit RCIE =0x8C.5 
.................... #bit TXIE =0x8C.4 
.................... #bit SSPIE =0x8C.3
.................... #bit CCP1IE =0x8C.2 
.................... #bit TMR2IE =0x8C.1
.................... #bit TMR1IE =0x8C.0
.................... 
.................... //----- PIE2 Bits -----------------------------------------------------
.................... 
.................... #bit CMIE =0x8D.6
.................... #bit EEIE =0x8D.4
.................... #bit BCLIE =0x8D.3
.................... #bit CCP2IE =0x8D.0
.................... 
.................... //----- PCON Bits ----------------------------------------------------------
.................... 
.................... #bit POR =0x8E.1
.................... #bit BOD =0x8E.0
.................... 
.................... //-----------SSPCON2 bits---------------------------------------------
.................... 
.................... #bit GCEN =0x91.7
.................... #bit ACKSTAT =0x91.6
.................... #bit ACKDT =0x91.5 
.................... #bit ACKEN =0x91.4
.................... #bit RCEN =0x91.3 
.................... #bit PEN =0x91.2
.................... #bit RSEN =0x91.1
.................... #bit SEN =0x91.0 
.................... 
.................... //---------------------SSPSTAT bits------------------------
.................... 
.................... #bit STAT_SMP =0x94.7
.................... #bit STAT_CKE =0x94.6
.................... #bit STAT_DA =0x94.5
.................... #bit STAT_P =0x94.4
.................... #bit STAT_S =0x94.3
.................... #bit STAT_RW =0x94.2
.................... #bit STAT_UA =0x94.1
.................... #bit STAT_BF =0x94.0
.................... 
.................... //----------------TXSTA bits-----------------
.................... 
.................... #bit CSRC =0x98.7
.................... #bit TX9 =0x98.6
.................... #bit TXEN =0x98.5 
.................... #bit SYNC =0x98.4
.................... #bit BRGH =0x98.2
.................... #bit TRMT =0x98.1
.................... #bit TX9D =0x98.0
.................... 
.................... //--------------ADCON1 bits---------------
.................... 
.................... #bit ADFM =0x9F.7
.................... #bit ADCS2 =0x9F.6
.................... #bit PCFG3 =0x9F.3
.................... #bit PCFG2 =0x9F.2
.................... #bit PCFG1 =0x9F.1 
.................... #bit PCFG0 =0x9F.0
.................... 
.................... //-----------EECON1 bits----------
.................... 
.................... #bit EEPGD =0x018C.7
.................... #bit WRERR =0x018C.3
.................... #bit WREN =0x018C.2 
.................... #bit WR =0x018C.1
.................... #bit RD =0x018C.0
.................... 
.................... #device *=16 ADC=8
.................... #FUSES NOWDT, HS, NOPUT, NODEBUG, NOBROWNOUT, NOLVP, NOCPD, NOWRT
.................... #use delay(clock = 20MHz)
*
0024:  MOVLW  5D
0025:  MOVWF  04
0026:  BCF    03.7
0027:  MOVF   00,W
0028:  BTFSC  03.2
0029:  GOTO   037
002A:  MOVLW  06
002B:  MOVWF  78
002C:  CLRF   77
002D:  DECFSZ 77,F
002E:  GOTO   02D
002F:  DECFSZ 78,F
0030:  GOTO   02C
0031:  MOVLW  7B
0032:  MOVWF  77
0033:  DECFSZ 77,F
0034:  GOTO   033
0035:  DECFSZ 00,F
0036:  GOTO   02A
0037:  RETURN
.................... 
.................... #define DT1        PIN_C0
.................... #define SCK        PIN_C1
.................... #define RESET_BTN  PIN_A0
.................... #define ONOFF_BTN  PIN_A1
.................... #define LCD_POWER  PIN_A2
.................... 
.................... #use i2c(MASTER, SDA=PIN_C4, SCL=PIN_C3, stream=I2C_LCD, FAST)
0038:  BCF    14.7
0039:  BCF    0C.3
003A:  MOVF   6B,W
003B:  MOVWF  13
003C:  MOVLW  02
003D:  BTFSC  14.7
003E:  GOTO   046
003F:  BSF    03.5
0040:  BTFSC  14.2
0041:  GOTO   040
0042:  MOVLW  00
0043:  BTFSC  11.6
0044:  MOVLW  01
0045:  BCF    03.5
0046:  MOVWF  78
0047:  RETURN
.................... #include <I2C_LCD.c>   // thu vi?n I2C b?n dã cung c?p
.................... // CCS C driver code for I2C LCDs (HD44780 compliant controllers)
.................... // https://simple-circuit.com/
.................... 
.................... 
.................... 
.................... #define LCD_BACKLIGHT          0x08
.................... #define LCD_NOBACKLIGHT        0x00
.................... #define LCD_FIRST_ROW          0x80
.................... #define LCD_SECOND_ROW         0xC0
.................... #define LCD_THIRD_ROW          0x94
.................... #define LCD_FOURTH_ROW         0xD4
.................... #define LCD_CLEAR              0x01
.................... #define LCD_RETURN_HOME        0x02
.................... #define LCD_ENTRY_MODE_SET     0x04
.................... #define LCD_CURSOR_OFF         0x0C
.................... #define LCD_UNDERLINE_ON       0x0E
.................... #define LCD_BLINK_CURSOR_ON    0x0F
.................... #define LCD_MOVE_CURSOR_LEFT   0x10
.................... #define LCD_MOVE_CURSOR_RIGHT  0x14
.................... #define LCD_TURN_ON            0x0C
.................... #define LCD_TURN_OFF           0x08
.................... #define LCD_SHIFT_LEFT         0x18
.................... #define LCD_SHIFT_RIGHT        0x1E
.................... 
.................... #ifndef LCD_TYPE
....................    #define LCD_TYPE 2           // 0=5x7, 1=5x10, 2=2 lines
.................... #endif
.................... 
.................... 
.................... int1 RS;
.................... unsigned int8 i2c_addr, backlight_val = LCD_BACKLIGHT;
.................... 
.................... void LCD_Write_Nibble(unsigned int8 n);
.................... void LCD_Cmd(unsigned int8 Command);
.................... void LCD_Goto(unsigned int8 col, unsigned int8 row);
.................... void LCD_Out(unsigned int8 LCD_Char);
.................... void LCD_Begin(unsigned int8 _i2c_addr);
.................... void Backlight();
.................... void noBacklight();
.................... void Expander_Write(unsigned int8 value);
.................... 
.................... void LCD_Write_Nibble(unsigned int8 n) {
....................   n |= RS;
*
005B:  MOVLW  00
005C:  BTFSC  21.0
005D:  MOVLW  01
005E:  IORWF  67,F
....................   Expander_Write(n);
005F:  MOVF   67,W
0060:  MOVWF  69
0061:  CALL   048
....................   Expander_Write(n | 0x04);
0062:  MOVF   67,W
0063:  IORLW  04
0064:  MOVWF  68
0065:  MOVWF  69
0066:  CALL   048
....................   delay_us(1);
0067:  GOTO   068
0068:  GOTO   069
0069:  NOP
....................   Expander_Write(n & 0xFB);
006A:  MOVF   67,W
006B:  ANDLW  FB
006C:  MOVWF  68
006D:  MOVWF  69
006E:  CALL   048
....................   delay_us(50);
006F:  MOVLW  53
0070:  MOVWF  77
0071:  DECFSZ 77,F
0072:  GOTO   071
0073:  RETURN
.................... }
.................... 
.................... void LCD_Cmd(unsigned int8 Command) {
....................   RS = 0;
0074:  BCF    21.0
....................   LCD_Write_Nibble(Command & 0xF0);
0075:  MOVF   5B,W
0076:  ANDLW  F0
0077:  MOVWF  5C
0078:  MOVWF  67
0079:  CALL   05B
....................   LCD_Write_Nibble((Command << 4) & 0xF0);
007A:  SWAPF  5B,W
007B:  MOVWF  77
007C:  MOVLW  F0
007D:  ANDWF  77,F
007E:  MOVF   77,W
007F:  ANDLW  F0
0080:  MOVWF  5C
0081:  MOVWF  67
0082:  CALL   05B
0083:  RETURN
.................... }
.................... 
.................... void LCD_Goto(unsigned int8 col, unsigned int8 row) {
....................   switch(row) {
*
00BC:  MOVF   59,W
00BD:  XORLW  02
00BE:  BTFSC  03.2
00BF:  GOTO   0C7
00C0:  XORLW  01
00C1:  BTFSC  03.2
00C2:  GOTO   0CE
00C3:  XORLW  07
00C4:  BTFSC  03.2
00C5:  GOTO   0D5
00C6:  GOTO   0DC
....................     case 2:
....................       LCD_Cmd(0xC0 + col-1);
00C7:  MOVLW  C0
00C8:  ADDWF  58,W
00C9:  ADDLW  FF
00CA:  MOVWF  5A
00CB:  MOVWF  5B
00CC:  CALL   074
....................       break;
00CD:  GOTO   0E2
....................     case 3:
....................       LCD_Cmd(0x94 + col-1);
00CE:  MOVLW  94
00CF:  ADDWF  58,W
00D0:  ADDLW  FF
00D1:  MOVWF  5A
00D2:  MOVWF  5B
00D3:  CALL   074
....................       break;
00D4:  GOTO   0E2
....................     case 4:
....................       LCD_Cmd(0xD4 + col-1);
00D5:  MOVLW  D4
00D6:  ADDWF  58,W
00D7:  ADDLW  FF
00D8:  MOVWF  5A
00D9:  MOVWF  5B
00DA:  CALL   074
....................     break;
00DB:  GOTO   0E2
....................     default:      // case 1:
....................       LCD_Cmd(0x80 + col-1);
00DC:  MOVLW  80
00DD:  ADDWF  58,W
00DE:  ADDLW  FF
00DF:  MOVWF  5A
00E0:  MOVWF  5B
00E1:  CALL   074
....................   }
00E2:  RETURN
.................... }
.................... 
.................... void LCD_Out(unsigned int8 LCD_Char){
....................   RS = 1;
00E3:  BSF    21.0
....................   LCD_Write_Nibble(LCD_Char & 0xF0);
00E4:  MOVF   65,W
00E5:  ANDLW  F0
00E6:  MOVWF  66
00E7:  MOVWF  67
00E8:  CALL   05B
....................   LCD_Write_Nibble((LCD_Char << 4) & 0xF0);
00E9:  SWAPF  65,W
00EA:  MOVWF  77
00EB:  MOVLW  F0
00EC:  ANDWF  77,F
00ED:  MOVF   77,W
00EE:  ANDLW  F0
00EF:  MOVWF  66
00F0:  MOVWF  67
00F1:  CALL   05B
00F2:  RETURN
.................... }
.................... 
.................... void LCD_Begin(unsigned int8 _i2c_addr) {
....................   i2c_addr = _i2c_addr;
*
0084:  MOVF   58,W
0085:  MOVWF  22
....................   Expander_Write(0);
0086:  CLRF   69
0087:  CALL   048
....................   delay_ms(40);
0088:  MOVLW  28
0089:  MOVWF  5D
008A:  CALL   024
....................   LCD_Cmd(3);
008B:  MOVLW  03
008C:  MOVWF  5B
008D:  CALL   074
....................   delay_ms(5);
008E:  MOVLW  05
008F:  MOVWF  5D
0090:  CALL   024
....................   LCD_Cmd(3);
0091:  MOVLW  03
0092:  MOVWF  5B
0093:  CALL   074
....................   delay_ms(5);
0094:  MOVLW  05
0095:  MOVWF  5D
0096:  CALL   024
....................   LCD_Cmd(3);
0097:  MOVLW  03
0098:  MOVWF  5B
0099:  CALL   074
....................   delay_ms(5);
009A:  MOVLW  05
009B:  MOVWF  5D
009C:  CALL   024
....................   LCD_Cmd(LCD_RETURN_HOME);
009D:  MOVLW  02
009E:  MOVWF  5B
009F:  CALL   074
....................   delay_ms(5);
00A0:  MOVLW  05
00A1:  MOVWF  5D
00A2:  CALL   024
....................   LCD_Cmd(0x20 | (LCD_TYPE << 2));
00A3:  MOVLW  28
00A4:  MOVWF  5B
00A5:  CALL   074
....................   delay_ms(50);
00A6:  MOVLW  32
00A7:  MOVWF  5D
00A8:  CALL   024
....................   LCD_Cmd(LCD_TURN_ON);
00A9:  MOVLW  0C
00AA:  MOVWF  5B
00AB:  CALL   074
....................   delay_ms(50);
00AC:  MOVLW  32
00AD:  MOVWF  5D
00AE:  CALL   024
....................   LCD_Cmd(LCD_CLEAR);
00AF:  MOVLW  01
00B0:  MOVWF  5B
00B1:  CALL   074
....................   delay_ms(50);
00B2:  MOVLW  32
00B3:  MOVWF  5D
00B4:  CALL   024
....................   LCD_Cmd(LCD_ENTRY_MODE_SET | LCD_RETURN_HOME);
00B5:  MOVLW  06
00B6:  MOVWF  5B
00B7:  CALL   074
....................   delay_ms(50);
00B8:  MOVLW  32
00B9:  MOVWF  5D
00BA:  CALL   024
00BB:  RETURN
.................... }
.................... 
.................... void Backlight() {
....................   backlight_val = LCD_BACKLIGHT;
....................   Expander_Write(0);
.................... }
.................... 
.................... void noBacklight() {
....................   backlight_val = LCD_NOBACKLIGHT;
....................   Expander_Write(0);
.................... }
.................... 
.................... void Expander_Write(unsigned int8 value) {
....................   I2C_Start(I2C_LCD);
*
0048:  BSF    03.5
0049:  BSF    11.0
004A:  BTFSC  11.0
004B:  GOTO   04A
....................   I2C_Write(I2C_LCD, i2c_addr);
004C:  BCF    03.5
004D:  MOVF   22,W
004E:  MOVWF  6B
004F:  CALL   038
....................   I2C_Write(I2C_LCD, value | backlight_val);
0050:  MOVF   69,W
0051:  IORWF  23,W
0052:  MOVWF  6A
0053:  MOVWF  6B
0054:  CALL   038
....................   I2C_Stop(I2C_LCD);
0055:  BSF    03.5
0056:  BSF    11.2
0057:  BTFSC  11.2
0058:  GOTO   057
0059:  BCF    03.5
005A:  RETURN
.................... }
.................... 
.................... 
.................... float SCALE = 36000;
.................... int1 system_on = TRUE;
.................... 
.................... // -------- HX711 d?c 24-bit ----------
.................... unsigned int32 readCount(void) {
*
01A1:  CLRF   60
01A2:  CLRF   5F
01A3:  CLRF   5E
01A4:  CLRF   5D
....................    unsigned int32 data = 0;
....................    unsigned int8 j;
....................    output_bit(DT1, 1);
01A5:  BSF    07.0
01A6:  BCF    20.0
01A7:  MOVF   20,W
01A8:  BSF    03.5
01A9:  MOVWF  07
....................    output_bit(SCK, 0);
01AA:  BCF    03.5
01AB:  BCF    07.1
01AC:  BCF    20.1
01AD:  MOVF   20,W
01AE:  BSF    03.5
01AF:  MOVWF  07
....................    while (input(DT1));        // ch? DRDY
01B0:  BCF    03.5
01B1:  BSF    20.0
01B2:  MOVF   20,W
01B3:  BSF    03.5
01B4:  MOVWF  07
01B5:  BCF    03.5
01B6:  BTFSC  07.0
01B7:  GOTO   1B1
....................    for (j = 0; j < 24; j++) {
01B8:  CLRF   61
01B9:  MOVF   61,W
01BA:  SUBLW  17
01BB:  BTFSS  03.0
01BC:  GOTO   1DF
....................       output_bit(SCK, 1);
01BD:  BSF    07.1
01BE:  BCF    20.1
01BF:  MOVF   20,W
01C0:  BSF    03.5
01C1:  MOVWF  07
....................       data = data << 1;
01C2:  BCF    03.0
01C3:  BCF    03.5
01C4:  RLF    5D,F
01C5:  RLF    5E,F
01C6:  RLF    5F,F
01C7:  RLF    60,F
....................       output_bit(SCK, 0);
01C8:  BCF    07.1
01C9:  BCF    20.1
01CA:  MOVF   20,W
01CB:  BSF    03.5
01CC:  MOVWF  07
....................       if (input(DT1)) data++;
01CD:  BCF    03.5
01CE:  BSF    20.0
01CF:  MOVF   20,W
01D0:  BSF    03.5
01D1:  MOVWF  07
01D2:  BCF    03.5
01D3:  BTFSS  07.0
01D4:  GOTO   1DD
01D5:  MOVLW  01
01D6:  ADDWF  5D,F
01D7:  BTFSC  03.0
01D8:  INCF   5E,F
01D9:  BTFSC  03.2
01DA:  INCF   5F,F
01DB:  BTFSC  03.2
01DC:  INCF   60,F
01DD:  INCF   61,F
01DE:  GOTO   1B9
....................    }
....................    output_bit(SCK, 1);
01DF:  BSF    07.1
01E0:  BCF    20.1
01E1:  MOVF   20,W
01E2:  BSF    03.5
01E3:  MOVWF  07
....................    data = data ^ 0x800000;    // chuy?n mã
01E4:  MOVLW  80
01E5:  BCF    03.5
01E6:  XORWF  5F,F
....................    output_bit(SCK, 0);
01E7:  BCF    07.1
01E8:  BCF    20.1
01E9:  MOVF   20,W
01EA:  BSF    03.5
01EB:  MOVWF  07
....................    return data;
01EC:  BCF    03.5
01ED:  MOVF   5D,W
01EE:  MOVWF  77
01EF:  MOVF   5E,W
01F0:  MOVWF  78
01F1:  MOVF   5F,W
01F2:  MOVWF  79
01F3:  MOVF   60,W
01F4:  MOVWF  7A
.................... }
.................... 
.................... int32 readAverage(void) {
*
0198:  CLRF   5B
0199:  CLRF   5A
019A:  CLRF   59
019B:  CLRF   58
....................    unsigned int32 sum = 0;
....................    int k;
....................    for (k = 0; k < 10; k++) {
019C:  CLRF   5C
019D:  MOVF   5C,W
019E:  SUBLW  09
019F:  BTFSS  03.0
01A0:  GOTO   208
....................       sum += readCount();
*
01F5:  MOVF   77,W
01F6:  ADDWF  58,F
01F7:  MOVF   78,W
01F8:  BTFSC  03.0
01F9:  INCFSZ 78,W
01FA:  ADDWF  59,F
01FB:  MOVF   79,W
01FC:  BTFSC  03.0
01FD:  INCFSZ 79,W
01FE:  ADDWF  5A,F
01FF:  MOVF   7A,W
0200:  BTFSC  03.0
0201:  INCFSZ 7A,W
0202:  ADDWF  5B,F
....................       delay_ms(10);
0203:  MOVLW  0A
0204:  MOVWF  5D
0205:  CALL   024
0206:  INCF   5C,F
0207:  GOTO   19D
....................    }
....................    return sum / 10;
0208:  BCF    03.1
0209:  MOVF   5B,W
020A:  MOVWF  68
020B:  MOVF   5A,W
020C:  MOVWF  67
020D:  MOVF   59,W
020E:  MOVWF  66
020F:  MOVF   58,W
0210:  MOVWF  65
0211:  CLRF   6C
0212:  CLRF   6B
0213:  CLRF   6A
0214:  MOVLW  0A
0215:  MOVWF  69
0216:  CALL   149
0217:  RETURN
.................... }
.................... // -------------------------------------
.................... 
.................... void main() {
*
0800:  MOVF   03,W
0801:  ANDLW  1F
0802:  MOVWF  03
0803:  MOVLW  FF
0804:  MOVWF  20
0805:  BSF    20.3
0806:  MOVF   20,W
0807:  BSF    03.5
0808:  MOVWF  07
0809:  BCF    03.5
080A:  BSF    20.4
080B:  MOVF   20,W
080C:  BSF    03.5
080D:  MOVWF  07
080E:  MOVLW  0C
080F:  MOVWF  13
0810:  MOVLW  28
0811:  BCF    03.5
0812:  MOVWF  14
0813:  BSF    03.5
0814:  BCF    14.7
0815:  BCF    14.6
0816:  MOVLW  08
0817:  BCF    03.5
0818:  MOVWF  23
0819:  CLRF   27
081A:  MOVLW  A0
081B:  MOVWF  26
081C:  MOVLW  0C
081D:  MOVWF  25
081E:  MOVLW  8E
081F:  MOVWF  24
0820:  BSF    21.1
0821:  CLRF   29
0822:  CLRF   28
0823:  BSF    03.5
0824:  BSF    1F.0
0825:  BSF    1F.1
0826:  BSF    1F.2
0827:  BCF    1F.3
0828:  MOVLW  07
0829:  MOVWF  1C
082A:  BCF    03.7
....................    setup_adc_ports(NO_ANALOGS);
082B:  BSF    1F.0
082C:  BSF    1F.1
082D:  BSF    1F.2
082E:  BCF    1F.3
....................    setup_adc(ADC_OFF);
082F:  BCF    03.5
0830:  BCF    1F.0
....................    set_tris_a(0x03);   // RA0, RA1 input; RA2 output (LCD_POWER)
0831:  MOVLW  03
0832:  BSF    03.5
0833:  MOVWF  05
.................... 
....................    // B?t ngu?n LCD module I2C (n?u b?n dùng chân di?u khi?n ngu?n)
....................    output_high(LCD_POWER);
0834:  BCF    05.2
0835:  BCF    03.5
0836:  BSF    05.2
....................    delay_ms(200);
0837:  MOVLW  C8
0838:  MOVWF  5D
0839:  BCF    0A.3
083A:  CALL   024
083B:  BSF    0A.3
.................... 
....................    // Kh?i t?o LCD I2C: d?a ch? 0x4E (tuong ?ng 0x27 << 1).
....................    // N?u module c?a b?n là 0x3F thì dùng 0x7E.
....................    LCD_Begin(0x4E);
083C:  MOVLW  4E
083D:  MOVWF  58
083E:  BCF    0A.3
083F:  CALL   084
0840:  BSF    0A.3
....................    delay_ms(100);
0841:  MOVLW  64
0842:  MOVWF  5D
0843:  BCF    0A.3
0844:  CALL   024
0845:  BSF    0A.3
....................    LCD_Goto(3,1); printf(LCD_Out, "Loading");
0846:  MOVLW  03
0847:  MOVWF  58
0848:  MOVLW  01
0849:  MOVWF  59
084A:  BCF    0A.3
084B:  CALL   0BC
084C:  BSF    0A.3
084D:  MOVLW  04
084E:  BSF    03.6
084F:  MOVWF  0D
0850:  MOVLW  00
0851:  MOVWF  0F
0852:  BCF    0A.3
0853:  BCF    03.6
0854:  CALL   0F3
0855:  BSF    0A.3
....................    delay_ms(5);
0856:  MOVLW  05
0857:  MOVWF  5D
0858:  BCF    0A.3
0859:  CALL   024
085A:  BSF    0A.3
....................    LCD_Goto(3,1); printf(LCD_Out, "Loading.");
085B:  MOVLW  03
085C:  MOVWF  58
085D:  MOVLW  01
085E:  MOVWF  59
085F:  BCF    0A.3
0860:  CALL   0BC
0861:  BSF    0A.3
0862:  MOVLW  08
0863:  BSF    03.6
0864:  MOVWF  0D
0865:  MOVLW  00
0866:  MOVWF  0F
0867:  BCF    0A.3
0868:  BCF    03.6
0869:  CALL   0F3
086A:  BSF    0A.3
....................    delay_ms(5);
086B:  MOVLW  05
086C:  MOVWF  5D
086D:  BCF    0A.3
086E:  CALL   024
086F:  BSF    0A.3
....................    LCD_Goto(3,1); printf(LCD_Out, "Loading..");
0870:  MOVLW  03
0871:  MOVWF  58
0872:  MOVLW  01
0873:  MOVWF  59
0874:  BCF    0A.3
0875:  CALL   0BC
0876:  BSF    0A.3
0877:  MOVLW  0D
0878:  BSF    03.6
0879:  MOVWF  0D
087A:  MOVLW  00
087B:  MOVWF  0F
087C:  BCF    0A.3
087D:  BCF    03.6
087E:  CALL   0F3
087F:  BSF    0A.3
....................    delay_ms(5);
0880:  MOVLW  05
0881:  MOVWF  5D
0882:  BCF    0A.3
0883:  CALL   024
0884:  BSF    0A.3
....................    LCD_Goto(3,1); printf(LCD_Out, "Loading...");
0885:  MOVLW  03
0886:  MOVWF  58
0887:  MOVLW  01
0888:  MOVWF  59
0889:  BCF    0A.3
088A:  CALL   0BC
088B:  BSF    0A.3
088C:  MOVLW  12
088D:  BSF    03.6
088E:  MOVWF  0D
088F:  MOVLW  00
0890:  MOVWF  0F
0891:  BCF    0A.3
0892:  BCF    03.6
0893:  CALL   0F3
0894:  BSF    0A.3
....................    delay_ms(5);
0895:  MOVLW  05
0896:  MOVWF  5D
0897:  BCF    0A.3
0898:  CALL   024
0899:  BSF    0A.3
.................... 
....................    {
....................       char name1[] = "Chu Tung Anh";
089A:  MOVLW  43
089B:  MOVWF  2A
089C:  MOVLW  68
089D:  MOVWF  2B
089E:  MOVLW  75
089F:  MOVWF  2C
08A0:  MOVLW  20
08A1:  MOVWF  2D
08A2:  MOVLW  54
08A3:  MOVWF  2E
08A4:  MOVLW  75
08A5:  MOVWF  2F
08A6:  MOVLW  6E
08A7:  MOVWF  30
08A8:  MOVLW  67
08A9:  MOVWF  31
08AA:  MOVLW  20
08AB:  MOVWF  32
08AC:  MOVLW  41
08AD:  MOVWF  33
08AE:  MOVLW  6E
08AF:  MOVWF  34
08B0:  MOVLW  68
08B1:  MOVWF  35
08B2:  CLRF   36
....................       int8 i;
....................       LCD_Goto(3,1);
08B3:  MOVLW  03
08B4:  MOVWF  58
08B5:  MOVLW  01
08B6:  MOVWF  59
08B7:  BCF    0A.3
08B8:  CALL   0BC
08B9:  BSF    0A.3
....................       for (i = 0; name1[i] != '\0'; i++) {
08BA:  CLRF   37
08BB:  MOVLW  2A
08BC:  ADDWF  37,W
08BD:  MOVWF  04
08BE:  BCF    03.7
08BF:  MOVF   00,F
08C0:  BTFSC  03.2
08C1:  GOTO   0D3
....................          LCD_Out(name1[i]);
08C2:  MOVLW  2A
08C3:  ADDWF  37,W
08C4:  MOVWF  04
08C5:  BCF    03.7
08C6:  MOVF   00,W
08C7:  MOVWF  58
08C8:  MOVWF  65
08C9:  BCF    0A.3
08CA:  CALL   0E3
08CB:  BSF    0A.3
....................          delay_ms(10);
08CC:  MOVLW  0A
08CD:  MOVWF  5D
08CE:  BCF    0A.3
08CF:  CALL   024
08D0:  BSF    0A.3
08D1:  INCF   37,F
08D2:  GOTO   0BB
....................       }
....................       delay_ms(10);
08D3:  MOVLW  0A
08D4:  MOVWF  5D
08D5:  BCF    0A.3
08D6:  CALL   024
08D7:  BSF    0A.3
.................... 
....................       char name2[] = "Can dien tu";
08D8:  MOVLW  43
08D9:  MOVWF  38
08DA:  MOVLW  61
08DB:  MOVWF  39
08DC:  MOVLW  6E
08DD:  MOVWF  3A
08DE:  MOVLW  20
08DF:  MOVWF  3B
08E0:  MOVLW  64
08E1:  MOVWF  3C
08E2:  MOVLW  69
08E3:  MOVWF  3D
08E4:  MOVLW  65
08E5:  MOVWF  3E
08E6:  MOVLW  6E
08E7:  MOVWF  3F
08E8:  MOVLW  20
08E9:  MOVWF  40
08EA:  MOVLW  74
08EB:  MOVWF  41
08EC:  MOVLW  75
08ED:  MOVWF  42
08EE:  CLRF   43
....................       LCD_Goto(3,2);
08EF:  MOVLW  03
08F0:  MOVWF  58
08F1:  MOVLW  02
08F2:  MOVWF  59
08F3:  BCF    0A.3
08F4:  CALL   0BC
08F5:  BSF    0A.3
....................       for (i = 0; name2[i] != '\0'; i++) {
08F6:  CLRF   37
08F7:  MOVLW  38
08F8:  ADDWF  37,W
08F9:  MOVWF  04
08FA:  BCF    03.7
08FB:  MOVF   00,F
08FC:  BTFSC  03.2
08FD:  GOTO   10F
....................          LCD_Out(name2[i]);
08FE:  MOVLW  38
08FF:  ADDWF  37,W
0900:  MOVWF  04
0901:  BCF    03.7
0902:  MOVF   00,W
0903:  MOVWF  58
0904:  MOVWF  65
0905:  BCF    0A.3
0906:  CALL   0E3
0907:  BSF    0A.3
....................          delay_ms(10);
0908:  MOVLW  0A
0909:  MOVWF  5D
090A:  BCF    0A.3
090B:  CALL   024
090C:  BSF    0A.3
090D:  INCF   37,F
090E:  GOTO   0F7
....................       }
....................       delay_ms(20);
090F:  MOVLW  14
0910:  MOVWF  5D
0911:  BCF    0A.3
0912:  CALL   024
0913:  BSF    0A.3
....................    }
.................... 
....................    // d?c offset ban d?u
....................    unsigned int32 offset = readAverage();
0914:  BCF    0A.3
0915:  CALL   198
0916:  BSF    0A.3
0917:  MOVF   7A,W
0918:  MOVWF  47
0919:  MOVF   79,W
091A:  MOVWF  46
091B:  MOVF   78,W
091C:  MOVWF  45
091D:  MOVF   77,W
091E:  MOVWF  44
.................... 
....................    LCD_Cmd(LCD_CLEAR);
091F:  MOVLW  01
0920:  MOVWF  5B
0921:  BCF    0A.3
0922:  CALL   074
0923:  BSF    0A.3
....................    LCD_Goto(2,1); printf(LCD_Out, "San sang!");
0924:  MOVLW  02
0925:  MOVWF  58
0926:  MOVLW  01
0927:  MOVWF  59
0928:  BCF    0A.3
0929:  CALL   0BC
092A:  BSF    0A.3
092B:  MOVLW  18
092C:  BSF    03.6
092D:  MOVWF  0D
092E:  MOVLW  00
092F:  MOVWF  0F
0930:  BCF    0A.3
0931:  BCF    03.6
0932:  CALL   0F3
0933:  BSF    0A.3
....................    delay_ms(20);
0934:  MOVLW  14
0935:  MOVWF  5D
0936:  BCF    0A.3
0937:  CALL   024
0938:  BSF    0A.3
....................    LCD_Goto(2,1); printf(LCD_Out, "             ");
0939:  MOVLW  02
093A:  MOVWF  58
093B:  MOVLW  01
093C:  MOVWF  59
093D:  BCF    0A.3
093E:  CALL   0BC
093F:  BSF    0A.3
0940:  MOVLW  1D
0941:  BSF    03.6
0942:  MOVWF  0D
0943:  MOVLW  00
0944:  MOVWF  0F
0945:  BCF    0A.3
0946:  BCF    03.6
0947:  CALL   0F3
0948:  BSF    0A.3
....................    delay_ms(20);
0949:  MOVLW  14
094A:  MOVWF  5D
094B:  BCF    0A.3
094C:  CALL   024
094D:  BSF    0A.3
....................    
.................... float last_grams = -1000;
094E:  CLRF   4B
094F:  CLRF   4A
0950:  MOVLW  FA
0951:  MOVWF  49
0952:  MOVLW  88
0953:  MOVWF  48
....................    while(TRUE) {
....................       // Nút ON/OFF
....................       if (input(ONOFF_BTN) == 0) {
0954:  BSF    03.5
0955:  BSF    05.1
0956:  BCF    03.5
0957:  BTFSC  05.1
0958:  GOTO   199
....................          delay_ms(5);
0959:  MOVLW  05
095A:  MOVWF  5D
095B:  BCF    0A.3
095C:  CALL   024
095D:  BSF    0A.3
....................          if (input(ONOFF_BTN) == 0) {
095E:  BSF    03.5
095F:  BSF    05.1
0960:  BCF    03.5
0961:  BTFSC  05.1
0962:  GOTO   199
....................             system_on = !system_on;
0963:  MOVLW  02
0964:  XORWF  21,F
....................             if (system_on) {
0965:  BTFSS  21.1
0966:  GOTO   186
....................                output_high(LCD_POWER);
0967:  BSF    03.5
0968:  BCF    05.2
0969:  BCF    03.5
096A:  BSF    05.2
....................                delay_ms(50);
096B:  MOVLW  32
096C:  MOVWF  5D
096D:  BCF    0A.3
096E:  CALL   024
096F:  BSF    0A.3
....................                LCD_Begin(0x4E);
0970:  MOVLW  4E
0971:  MOVWF  58
0972:  BCF    0A.3
0973:  CALL   084
0974:  BSF    0A.3
....................                offset = readAverage();
0975:  BCF    0A.3
0976:  CALL   198
0977:  BSF    0A.3
0978:  MOVF   7A,W
0979:  MOVWF  47
097A:  MOVF   79,W
097B:  MOVWF  46
097C:  MOVF   78,W
097D:  MOVWF  45
097E:  MOVF   77,W
097F:  MOVWF  44
....................                delay_ms(100);
0980:  MOVLW  64
0981:  MOVWF  5D
0982:  BCF    0A.3
0983:  CALL   024
0984:  BSF    0A.3
....................             } else {
0985:  GOTO   18F
....................                delay_ms(5);
0986:  MOVLW  05
0987:  MOVWF  5D
0988:  BCF    0A.3
0989:  CALL   024
098A:  BSF    0A.3
....................                output_low(LCD_POWER);
098B:  BSF    03.5
098C:  BCF    05.2
098D:  BCF    03.5
098E:  BCF    05.2
....................             }
....................             while (input(ONOFF_BTN) == 0); // d?i th? nút
098F:  BSF    03.5
0990:  BSF    05.1
0991:  BCF    03.5
0992:  BTFSS  05.1
0993:  GOTO   18F
....................             delay_ms(50);
0994:  MOVLW  32
0995:  MOVWF  5D
0996:  BCF    0A.3
0997:  CALL   024
0998:  BSF    0A.3
....................          }
....................       }
.................... 
....................       if (!system_on) {
0999:  BTFSC  21.1
099A:  GOTO   19C
....................          continue;
099B:  GOTO   154
....................       }
.................... 
....................       // Nút RESET: c?p nh?t offset
....................       if (input(RESET_BTN) == 0) {
099C:  BSF    03.5
099D:  BSF    05.0
099E:  BCF    03.5
099F:  BTFSC  05.0
09A0:  GOTO   1C0
....................          delay_ms(10);
09A1:  MOVLW  0A
09A2:  MOVWF  5D
09A3:  BCF    0A.3
09A4:  CALL   024
09A5:  BSF    0A.3
....................          if (input(RESET_BTN) == 0) {
09A6:  BSF    03.5
09A7:  BSF    05.0
09A8:  BCF    03.5
09A9:  BTFSC  05.0
09AA:  GOTO   1C0
....................             offset = readAverage();
09AB:  BCF    0A.3
09AC:  CALL   198
09AD:  BSF    0A.3
09AE:  MOVF   7A,W
09AF:  MOVWF  47
09B0:  MOVF   79,W
09B1:  MOVWF  46
09B2:  MOVF   78,W
09B3:  MOVWF  45
09B4:  MOVF   77,W
09B5:  MOVWF  44
....................             while (input(RESET_BTN) == 0);
09B6:  BSF    03.5
09B7:  BSF    05.0
09B8:  BCF    03.5
09B9:  BTFSS  05.0
09BA:  GOTO   1B6
....................             delay_ms(50);
09BB:  MOVLW  32
09BC:  MOVWF  5D
09BD:  BCF    0A.3
09BE:  CALL   024
09BF:  BSF    0A.3
....................          }
....................       }
.................... 
....................       unsigned int32 raw = readAverage();
....................       signed int32 delta = (signed int32)raw - (signed int32)offset;
09C0:  BCF    0A.3
09C1:  CALL   198
09C2:  BSF    0A.3
09C3:  MOVF   7A,W
09C4:  MOVWF  4F
09C5:  MOVF   79,W
09C6:  MOVWF  4E
09C7:  MOVF   78,W
09C8:  MOVWF  4D
09C9:  MOVF   77,W
09CA:  MOVWF  4C
09CB:  MOVF   44,W
09CC:  SUBWF  4C,W
09CD:  MOVWF  50
09CE:  MOVF   4D,W
09CF:  MOVWF  51
09D0:  MOVF   45,W
09D1:  BTFSS  03.0
09D2:  INCFSZ 45,W
09D3:  SUBWF  51,F
09D4:  MOVF   4E,W
09D5:  MOVWF  52
09D6:  MOVF   46,W
09D7:  BTFSS  03.0
09D8:  INCFSZ 46,W
09D9:  SUBWF  52,F
09DA:  MOVF   4F,W
09DB:  MOVWF  53
09DC:  MOVF   47,W
09DD:  BTFSS  03.0
09DE:  INCFSZ 47,W
09DF:  SUBWF  53,F
....................       if (delta < 0) delta = 0;
09E0:  BTFSC  53.7
09E1:  GOTO   1E3
09E2:  GOTO   1E7
09E3:  CLRF   53
09E4:  CLRF   52
09E5:  CLRF   51
09E6:  CLRF   50
....................       float grams = (float)delta / SCALE;
09E7:  MOVF   53,W
09E8:  MOVWF  5B
09E9:  MOVF   52,W
09EA:  MOVWF  5A
09EB:  MOVF   51,W
09EC:  MOVWF  59
09ED:  MOVF   50,W
09EE:  MOVWF  58
09EF:  BCF    0A.3
09F0:  GOTO   218
09F1:  BSF    0A.3
09F2:  MOVF   7A,W
09F3:  MOVWF  5B
09F4:  MOVF   79,W
09F5:  MOVWF  5A
09F6:  MOVF   78,W
09F7:  MOVWF  59
09F8:  MOVF   77,W
09F9:  MOVWF  58
09FA:  MOVF   5B,W
09FB:  MOVWF  5F
09FC:  MOVF   5A,W
09FD:  MOVWF  5E
09FE:  MOVF   59,W
09FF:  MOVWF  5D
0A00:  MOVF   58,W
0A01:  MOVWF  5C
0A02:  MOVF   27,W
0A03:  MOVWF  63
0A04:  MOVF   26,W
0A05:  MOVWF  62
0A06:  MOVF   25,W
0A07:  MOVWF  61
0A08:  MOVF   24,W
0A09:  MOVWF  60
0A0A:  BCF    0A.3
0A0B:  GOTO   248
0A0C:  BSF    0A.3
0A0D:  MOVF   7A,W
0A0E:  MOVWF  57
0A0F:  MOVF   79,W
0A10:  MOVWF  56
0A11:  MOVF   78,W
0A12:  MOVWF  55
0A13:  MOVF   77,W
0A14:  MOVWF  54
.................... 
....................     if(abs(grams - last_grams) >= 1) {
0A15:  BSF    03.1
0A16:  MOVF   57,W
0A17:  MOVWF  5B
0A18:  MOVF   56,W
0A19:  MOVWF  5A
0A1A:  MOVF   55,W
0A1B:  MOVWF  59
0A1C:  MOVF   54,W
0A1D:  MOVWF  58
0A1E:  MOVF   4B,W
0A1F:  MOVWF  5F
0A20:  MOVF   4A,W
0A21:  MOVWF  5E
0A22:  MOVF   49,W
0A23:  MOVWF  5D
0A24:  MOVF   48,W
0A25:  MOVWF  5C
0A26:  BCF    0A.3
0A27:  GOTO   314
0A28:  BSF    0A.3
0A29:  MOVF   7A,W
0A2A:  MOVWF  5B
0A2B:  MOVF   79,W
0A2C:  MOVWF  5A
0A2D:  MOVF   78,W
0A2E:  MOVWF  59
0A2F:  MOVF   77,W
0A30:  MOVWF  58
0A31:  MOVWF  77
0A32:  MOVF   59,W
0A33:  MOVWF  78
0A34:  MOVF   5A,W
0A35:  MOVWF  79
0A36:  MOVF   5B,W
0A37:  MOVWF  7A
0A38:  BCF    78.7
0A39:  MOVF   7A,W
0A3A:  MOVWF  5B
0A3B:  MOVF   79,W
0A3C:  MOVWF  5A
0A3D:  MOVF   78,W
0A3E:  MOVWF  59
0A3F:  MOVF   77,W
0A40:  MOVWF  58
0A41:  CLRF   5F
0A42:  CLRF   5E
0A43:  CLRF   5D
0A44:  MOVLW  7F
0A45:  MOVWF  5C
0A46:  MOVF   5B,W
0A47:  MOVWF  63
0A48:  MOVF   5A,W
0A49:  MOVWF  62
0A4A:  MOVF   59,W
0A4B:  MOVWF  61
0A4C:  MOVF   58,W
0A4D:  MOVWF  60
0A4E:  BCF    0A.3
0A4F:  GOTO   457
0A50:  BSF    0A.3
0A51:  BTFSC  03.0
0A52:  GOTO   255
0A53:  BTFSS  03.2
0A54:  GOTO   27B
....................       LCD_Goto(1,1);
0A55:  MOVLW  01
0A56:  MOVWF  58
0A57:  MOVWF  59
0A58:  BCF    0A.3
0A59:  CALL   0BC
0A5A:  BSF    0A.3
....................       printf(LCD_Out,"%6.0f g", grams);
0A5B:  MOVLW  05
0A5C:  MOVWF  04
0A5D:  MOVF   57,W
0A5E:  MOVWF  5B
0A5F:  MOVF   56,W
0A60:  MOVWF  5A
0A61:  MOVF   55,W
0A62:  MOVWF  59
0A63:  MOVF   54,W
0A64:  MOVWF  58
0A65:  CLRF   5C
0A66:  BCF    0A.3
0A67:  GOTO   498
0A68:  BSF    0A.3
0A69:  MOVLW  20
0A6A:  MOVWF  65
0A6B:  BCF    0A.3
0A6C:  CALL   0E3
0A6D:  BSF    0A.3
0A6E:  MOVLW  67
0A6F:  MOVWF  65
0A70:  BCF    0A.3
0A71:  CALL   0E3
0A72:  BSF    0A.3
....................       last_grams = grams;
0A73:  MOVF   57,W
0A74:  MOVWF  4B
0A75:  MOVF   56,W
0A76:  MOVWF  4A
0A77:  MOVF   55,W
0A78:  MOVWF  49
0A79:  MOVF   54,W
0A7A:  MOVWF  48
....................    }
.................... 
....................       delay_ms(150);
0A7B:  MOVLW  96
0A7C:  MOVWF  5D
0A7D:  BCF    0A.3
0A7E:  CALL   024
0A7F:  BSF    0A.3
0A80:  GOTO   154
....................    }
.................... }
.................... 
0A81:  SLEEP

Configuration Fuses:
   Word  1: 3F3A   HS NOWDT NOPUT NOBROWNOUT NOLVP NOCPD NOWRT NODEBUG NOPROTECT
